target datalayout = "e-m:e-p270:32:32-p271:32:32-p272:64:64-i64:64-i128:128-f80:128-n8:16:32:64-S128"
target triple = "x86_64-pc-linux-gnu"

%struct.int_stack_t = type { ptr, i64, i64, i64 }
%struct.treegen_s = type { i32, ptr, %struct.int_stack_t, ptr }
%struct.tree_t = type { i32, i32, ptr }

@stderr = external global ptr, align 8
@.str.4 = private unnamed_addr constant [58 x i8] c"integer overflow when trying to allocate %zu * %zu bytes\0A\00", align 1
@.str.5 = private unnamed_addr constant [49 x i8] c"out of memory when trying to allocate %zu bytes\0A\00", align 1

; Function Attrs: inlinehint nounwind uwtable
define internal ptr @gv_calloc(i64 noundef %0, i64 noundef %1) #3 {
  %3 = alloca i64, align 8
  %4 = alloca i64, align 8
  %5 = alloca ptr, align 8
  store i64 %0, ptr %3, align 8, !tbaa !46
  store i64 %1, ptr %4, align 8, !tbaa !46
  %6 = load i64, ptr %3, align 8, !tbaa !46
  %7 = icmp ugt i64 %6, 0
  br i1 %7, label %8, label %18

8:                                                ; preds = %2
  %9 = load i64, ptr %3, align 8, !tbaa !46
  %10 = udiv i64 -1, %9
  %11 = load i64, ptr %4, align 8, !tbaa !46
  %12 = icmp ult i64 %10, %11
  br i1 %12, label %13, label %18

13:                                               ; preds = %8
  %14 = load ptr, ptr @stderr, align 8, !tbaa !14
  %15 = load i64, ptr %3, align 8, !tbaa !46
  %16 = load i64, ptr %4, align 8, !tbaa !46
  %17 = call i32 (ptr, ptr, ...) @fprintf(ptr noundef %14, ptr noundef @.str.4, i64 noundef %15, i64 noundef %16) #11
  call void @graphviz_exit(i32 noundef 1) #12
  unreachable

18:                                               ; preds = %8, %2
  call void @llvm.lifetime.start.p0(i64 8, ptr %5) #11
  %19 = load i64, ptr %3, align 8, !tbaa !46
  %20 = load i64, ptr %4, align 8, !tbaa !46
  %21 = call noalias ptr @calloc(i64 noundef %19, i64 noundef %20) #13
  store ptr %21, ptr %5, align 8, !tbaa !8
  %22 = load i64, ptr %3, align 8, !tbaa !46
  %23 = icmp ugt i64 %22, 0
  br i1 %23, label %24, label %36

24:                                               ; preds = %18
  %25 = load i64, ptr %4, align 8, !tbaa !46
  %26 = icmp ugt i64 %25, 0
  br i1 %26, label %27, label %36

27:                                               ; preds = %24
  %28 = load ptr, ptr %5, align 8, !tbaa !8
  %29 = icmp eq ptr %28, null
  br i1 %29, label %30, label %36

30:                                               ; preds = %27
  %31 = load ptr, ptr @stderr, align 8, !tbaa !14
  %32 = load i64, ptr %3, align 8, !tbaa !46
  %33 = load i64, ptr %4, align 8, !tbaa !46
  %34 = mul i64 %32, %33
  %35 = call i32 (ptr, ptr, ...) @fprintf(ptr noundef %31, ptr noundef @.str.5, i64 noundef %34) #11
  call void @graphviz_exit(i32 noundef 1) #12
  unreachable

36:                                               ; preds = %27, %24, %18
  %37 = load ptr, ptr %5, align 8, !tbaa !8
  call void @llvm.lifetime.end.p0(i64 8, ptr %5) #11
  ret ptr %37
}

; Function Attrs: nounwind uwtable
define internal ptr @mkTree(i32 noundef %0) #0 {
  %2 = alloca i32, align 4
  %3 = alloca ptr, align 8
  store i32 %0, ptr %2, align 4, !tbaa !4
  call void @llvm.lifetime.start.p0(i64 8, ptr %3) #11
  %4 = call ptr @gv_alloc(i64 noundef 16)
  store ptr %4, ptr %3, align 8, !tbaa !8
  %5 = load ptr, ptr %3, align 8, !tbaa !8
  %6 = getelementptr inbounds nuw %struct.tree_t, ptr %5, i32 0, i32 1
  store i32 0, ptr %6, align 4, !tbaa !76
  %7 = load ptr, ptr %3, align 8, !tbaa !8
  %8 = getelementptr inbounds nuw %struct.tree_t, ptr %7, i32 0, i32 0
  store i32 0, ptr %8, align 8, !tbaa !78
  %9 = load i32, ptr %2, align 4, !tbaa !4
  %10 = zext i32 %9 to i64
  %11 = call ptr @gv_calloc(i64 noundef %10, i64 noundef 4)
  %12 = load ptr, ptr %3, align 8, !tbaa !8
  %13 = getelementptr inbounds nuw %struct.tree_t, ptr %12, i32 0, i32 2
  store ptr %11, ptr %13, align 8, !tbaa !79
  %14 = load ptr, ptr %3, align 8, !tbaa !8
  call void @llvm.lifetime.end.p0(i64 8, ptr %3) #11
  ret ptr %14
}

; Function Attrs: nounwind uwtable
define internal ptr @genCnt(i32 noundef %0) #0 {
  %2 = alloca i32, align 4
  %3 = alloca ptr, align 8
  %4 = alloca i32, align 4
  %5 = alloca i32, align 4
  %6 = alloca i32, align 4
  %7 = alloca i32, align 4
  %8 = alloca i32, align 4
  %9 = alloca i32, align 4
  %10 = alloca i32, align 4
  store i32 %0, ptr %2, align 4, !tbaa !4
  call void @llvm.lifetime.start.p0(i64 8, ptr %3) #11
  %11 = load i32, ptr %2, align 4, !tbaa !4
  %12 = add i32 %11, 1
  %13 = zext i32 %12 to i64
  %14 = call ptr @gv_calloc(i64 noundef %13, i64 noundef 4)
  store ptr %14, ptr %3, align 8, !tbaa !38
  call void @llvm.lifetime.start.p0(i64 4, ptr %4) #11
  store i32 1, ptr %4, align 4, !tbaa !4
  %15 = load ptr, ptr %3, align 8, !tbaa !38
  %16 = getelementptr inbounds i32, ptr %15, i64 1
  store i32 1, ptr %16, align 4, !tbaa !4
  br label %17

17:                                               ; preds = %68, %1
  %18 = load i32, ptr %2, align 4, !tbaa !4
  %19 = load i32, ptr %4, align 4, !tbaa !4
  %20 = icmp ugt i32 %18, %19
  br i1 %20, label %21, label %79

21:                                               ; preds = %17
  call void @llvm.lifetime.start.p0(i64 4, ptr %5) #11
  store i32 0, ptr %5, align 4, !tbaa !4
  call void @llvm.lifetime.start.p0(i64 4, ptr %6) #11
  store i32 1, ptr %6, align 4, !tbaa !4
  br label %22

22:                                               ; preds = %65, %21
  %23 = load i32, ptr %6, align 4, !tbaa !4
  %24 = load i32, ptr %4, align 4, !tbaa !4
  %25 = icmp ule i32 %23, %24
  br i1 %25, label %27, label %26

26:                                               ; preds = %22
  store i32 4, ptr %7, align 4
  call void @llvm.lifetime.end.p0(i64 4, ptr %6) #11
  br label %68

27:                                               ; preds = %22
  call void @llvm.lifetime.start.p0(i64 4, ptr %8) #11
  %28 = load i32, ptr %4, align 4, !tbaa !4
  %29 = add i32 %28, 1
  store i32 %29, ptr %8, align 4, !tbaa !4
  call void @llvm.lifetime.start.p0(i64 4, ptr %9) #11
  %30 = load ptr, ptr %3, align 8, !tbaa !38
  %31 = load i32, ptr %6, align 4, !tbaa !4
  %32 = zext i32 %31 to i64
  %33 = getelementptr inbounds nuw i32, ptr %30, i64 %32
  %34 = load i32, ptr %33, align 4, !tbaa !4
  %35 = load i32, ptr %6, align 4, !tbaa !4
  %36 = mul i32 %34, %35
  store i32 %36, ptr %9, align 4, !tbaa !4
  call void @llvm.lifetime.start.p0(i64 4, ptr %10) #11
  store i32 1, ptr %10, align 4, !tbaa !4
  br label %37

37:                                               ; preds = %60, %27
  %38 = load i32, ptr %10, align 4, !tbaa !4
  %39 = load i32, ptr %4, align 4, !tbaa !4
  %40 = icmp ule i32 %38, %39
  br i1 %40, label %42, label %41

41:                                               ; preds = %37
  store i32 7, ptr %7, align 4
  br label %63

42:                                               ; preds = %37
  %43 = load i32, ptr %8, align 4, !tbaa !4
  %44 = load i32, ptr %6, align 4, !tbaa !4
  %45 = icmp ule i32 %43, %44
  br i1 %45, label %46, label %47

46:                                               ; preds = %42
  store i32 7, ptr %7, align 4
  br label %63

47:                                               ; preds = %42
  %48 = load i32, ptr %8, align 4, !tbaa !4
  %49 = load i32, ptr %6, align 4, !tbaa !4
  %50 = sub i32 %48, %49
  store i32 %50, ptr %8, align 4, !tbaa !4
  %51 = load ptr, ptr %3, align 8, !tbaa !38
  %52 = load i32, ptr %8, align 4, !tbaa !4
  %53 = zext i32 %52 to i64
  %54 = getelementptr inbounds nuw i32, ptr %51, i64 %53
  %55 = load i32, ptr %54, align 4, !tbaa !4
  %56 = load i32, ptr %9, align 4, !tbaa !4
  %57 = mul i32 %55, %56
  %58 = load i32, ptr %5, align 4, !tbaa !4
  %59 = add i32 %58, %57
  store i32 %59, ptr %5, align 4, !tbaa !4
  br label %60

60:                                               ; preds = %47
  %61 = load i32, ptr %10, align 4, !tbaa !4
  %62 = add i32 %61, 1
  store i32 %62, ptr %10, align 4, !tbaa !4
  br label %37, !llvm.loop !73

63:                                               ; preds = %46, %41
  call void @llvm.lifetime.end.p0(i64 4, ptr %10) #11
  br label %64

64:                                               ; preds = %63
  call void @llvm.lifetime.end.p0(i64 4, ptr %9) #11
  call void @llvm.lifetime.end.p0(i64 4, ptr %8) #11
  br label %65

65:                                               ; preds = %64
  %66 = load i32, ptr %6, align 4, !tbaa !4
  %67 = add i32 %66, 1
  store i32 %67, ptr %6, align 4, !tbaa !4
  br label %22, !llvm.loop !74

68:                                               ; preds = %26
  %69 = load i32, ptr %4, align 4, !tbaa !4
  %70 = add i32 %69, 1
  store i32 %70, ptr %4, align 4, !tbaa !4
  %71 = load i32, ptr %5, align 4, !tbaa !4
  %72 = load i32, ptr %4, align 4, !tbaa !4
  %73 = sub i32 %72, 1
  %74 = udiv i32 %71, %73
  %75 = load ptr, ptr %3, align 8, !tbaa !38
  %76 = load i32, ptr %4, align 4, !tbaa !4
  %77 = zext i32 %76 to i64
  %78 = getelementptr inbounds nuw i32, ptr %75, i64 %77
  store i32 %74, ptr %78, align 4, !tbaa !4
  call void @llvm.lifetime.end.p0(i64 4, ptr %5) #11
  br label %17, !llvm.loop !75

79:                                               ; preds = %17
  %80 = load ptr, ptr %3, align 8, !tbaa !38
  store i32 1, ptr %7, align 4
  call void @llvm.lifetime.end.p0(i64 4, ptr %4) #11
  call void @llvm.lifetime.end.p0(i64 8, ptr %3) #11
  ret ptr %80
}

; Function Attrs: inlinehint nounwind uwtable
define internal ptr @gv_alloc(i64 noundef %0) #3 {
  %2 = alloca i64, align 8
  store i64 %0, ptr %2, align 8, !tbaa !46
  %3 = load i64, ptr %2, align 8, !tbaa !46
  %4 = call ptr @gv_calloc(i64 noundef 1, i64 noundef %3)
  ret ptr %4
}

; Function Attrs: nounwind uwtable
define dso_local ptr @makeTreeGen(i32 noundef %0) #0 {
  %2 = alloca i32, align 4
  %3 = alloca ptr, align 8
  %4 = alloca %struct.int_stack_t, align 8
  store i32 %0, ptr %2, align 4, !tbaa !4
  call void @llvm.lifetime.start.p0(i64 8, ptr %3) #11
  %5 = call ptr @gv_alloc(i64 noundef 56)
  store ptr %5, ptr %3, align 8, !tbaa !65
  %6 = load i32, ptr %2, align 4, !tbaa !4
  %7 = load ptr, ptr %3, align 8, !tbaa !65
  %8 = getelementptr inbounds nuw %struct.treegen_s, ptr %7, i32 0, i32 0
  store i32 %6, ptr %8, align 8, !tbaa !67
  %9 = load i32, ptr %2, align 4, !tbaa !4
  %10 = call ptr @genCnt(i32 noundef %9)
  %11 = load ptr, ptr %3, align 8, !tbaa !65
  %12 = getelementptr inbounds nuw %struct.treegen_s, ptr %11, i32 0, i32 1
  store ptr %10, ptr %12, align 8, !tbaa !70
  %13 = load ptr, ptr %3, align 8, !tbaa !65
  %14 = getelementptr inbounds nuw %struct.treegen_s, ptr %13, i32 0, i32 2
  call void @llvm.memset.p0.i64(ptr align 8 %4, i8 0, i64 32, i1 false)
  call void @llvm.memcpy.p0.p0.i64(ptr align 8 %14, ptr align 8 %4, i64 32, i1 false), !tbaa.struct !71
  %15 = load i32, ptr %2, align 4, !tbaa !4
  %16 = add i32 %15, 1
  %17 = call ptr @mkTree(i32 noundef %16)
  %18 = load ptr, ptr %3, align 8, !tbaa !65
  %19 = getelementptr inbounds nuw %struct.treegen_s, ptr %18, i32 0, i32 3
  store ptr %17, ptr %19, align 8, !tbaa !72
  %20 = call i64 @time(ptr noundef null) #11
  %21 = trunc i64 %20 to i32
  call void @srand(i32 noundef %21) #11
  %22 = load ptr, ptr %3, align 8, !tbaa !65
  call void @llvm.lifetime.end.p0(i64 8, ptr %3) #11
  ret ptr %22
}