; Function Attrs: nounwind uwtable
define dso_local noalias noundef ptr @makeTreeGen(i32 noundef %0) local_unnamed_addr #0 {
  %2 = tail call noalias dereferenceable_or_null(56) ptr @calloc(i64 noundef 1, i64 noundef range(i64 4, 57) 56) #17
  %3 = icmp eq ptr %2, null
  br i1 %3, label %4, label %gv_alloc.exit

4:                                                ; preds = %1
  %5 = load ptr, ptr @stderr, align 8, !tbaa !8
  %6 = tail call i32 (ptr, ptr, ...) @fprintf(ptr noundef %5, ptr noundef nonnull @.str.5, i64 noundef 56) #16
  tail call fastcc void @graphviz_exit() #18
  unreachable

gv_alloc.exit:                                    ; preds = %1
  store i32 %0, ptr %2, align 8, !tbaa !59
  %7 = add i32 %0, 1
  %8 = zext i32 %7 to i64
  %9 = icmp ne i32 %7, 0
  %10 = tail call noalias ptr @calloc(i64 noundef range(i64 0, 4294967296) %8, i64 noundef 4) #17
  %11 = icmp eq ptr %10, null
  %or.cond3.i.i = and i1 %9, %11
  br i1 %or.cond3.i.i, label %12, label %gv_calloc.exit.i

12:                                               ; preds = %gv_alloc.exit
  %13 = load ptr, ptr @stderr, align 8, !tbaa !8
  %14 = shl nuw nsw i64 %8, 2
  %15 = tail call i32 (ptr, ptr, ...) @fprintf(ptr noundef %13, ptr noundef nonnull @.str.5, i64 noundef %14) #16
  tail call fastcc void @graphviz_exit() #18
  unreachable

gv_calloc.exit.i:                                 ; preds = %gv_alloc.exit
  %16 = getelementptr inbounds nuw i8, ptr %10, i64 4
  store i32 1, ptr %16, align 4, !tbaa !30
  %17 = icmp ugt i32 %0, 1
  br i1 %17, label %.preheader.preheader.i, label %genCnt.exit

.preheader.preheader.i:                           ; preds = %gv_calloc.exit.i
  %wide.trip.count51.i = zext i32 %0 to i64
  br label %.preheader.i

.preheader.i:                                     ; preds = %19, %.preheader.preheader.i
  %indvars.iv46.i = phi i64 [ 1, %.preheader.preheader.i ], [ %indvars.iv.next47.i, %19 ]
  %indvars.iv44.i = phi i64 [ 2, %.preheader.preheader.i ], [ %indvars.iv.next45.i, %19 ]
  %indvars.iv.next47.i = add nuw nsw i64 %indvars.iv46.i, 1
  %18 = trunc nuw i64 %indvars.iv.next47.i to i32
  br label %.lr.ph.preheader.i

19:                                               ; preds = %._crit_edge.i
  %20 = trunc nuw i64 %indvars.iv46.i to i32
  %21 = udiv i32 %32, %20
  %22 = getelementptr inbounds nuw i32, ptr %10, i64 %indvars.iv.next47.i
  store i32 %21, ptr %22, align 4, !tbaa !30
  %indvars.iv.next45.i = add nuw nsw i64 %indvars.iv44.i, 1
  %exitcond52.not.i = icmp eq i64 %indvars.iv.next47.i, %wide.trip.count51.i
  br i1 %exitcond52.not.i, label %genCnt.exit, label %.preheader.i, !llvm.loop !63

.lr.ph.preheader.i:                               ; preds = %._crit_edge.i, %.preheader.i
  %indvars.iv.i = phi i64 [ 1, %.preheader.i ], [ %indvars.iv.next.i, %._crit_edge.i ]
  %.03037.i = phi i32 [ 0, %.preheader.i ], [ %32, %._crit_edge.i ]
  %23 = getelementptr inbounds nuw i32, ptr %10, i64 %indvars.iv.i
  %24 = load i32, ptr %23, align 4, !tbaa !30
  %25 = trunc nuw i64 %indvars.iv.i to i32
  %26 = mul i32 %24, %25
  br label %.lr.ph.i

.lr.ph.i:                                         ; preds = %.lr.ph.i, %.lr.ph.preheader.i
  %indvars.iv = phi i64 [ %indvars.iv.next, %.lr.ph.i ], [ 1, %.lr.ph.preheader.i ]
  %.02835.i = phi i32 [ %27, %.lr.ph.i ], [ %18, %.lr.ph.preheader.i ]
  %.134.i = phi i32 [ %32, %.lr.ph.i ], [ %.03037.i, %.lr.ph.preheader.i ]
  %27 = sub nuw i32 %.02835.i, %25
  %28 = zext i32 %27 to i64
  %29 = getelementptr inbounds nuw i32, ptr %10, i64 %28
  %30 = load i32, ptr %29, align 4, !tbaa !30
  %31 = mul i32 %26, %30
  %32 = add i32 %31, %.134.i
  %indvars.iv.next = add nuw nsw i64 %indvars.iv, 1
  %.not31.i = icmp samesign ugt i64 %indvars.iv46.i, %indvars.iv
  %.not32.i = icmp samesign ult i64 %indvars.iv.i, %28
  %or.cond.i = and i1 %.not31.i, %.not32.i
  br i1 %or.cond.i, label %.lr.ph.i, label %._crit_edge.i, !llvm.loop !64

._crit_edge.i:                                    ; preds = %.lr.ph.i
  %indvars.iv.next.i = add nuw nsw i64 %indvars.iv.i, 1
  %exitcond.i = icmp eq i64 %indvars.iv.next.i, %indvars.iv44.i
  br i1 %exitcond.i, label %19, label %.lr.ph.preheader.i, !llvm.loop !65

genCnt.exit:                                      ; preds = %19, %gv_calloc.exit.i
  %33 = getelementptr inbounds nuw i8, ptr %2, i64 8
  store ptr %10, ptr %33, align 8, !tbaa !66
  %34 = tail call noalias dereferenceable_or_null(16) ptr @calloc(i64 noundef 1, i64 noundef range(i64 4, 57) 16) #17
  %35 = icmp eq ptr %34, null
  br i1 %35, label %36, label %gv_alloc.exit.i

36:                                               ; preds = %genCnt.exit
  %37 = load ptr, ptr @stderr, align 8, !tbaa !8
  %38 = tail call i32 (ptr, ptr, ...) @fprintf(ptr noundef %37, ptr noundef nonnull @.str.5, i64 noundef 16) #16
  tail call fastcc void @graphviz_exit() #18
  unreachable

gv_alloc.exit.i:                                  ; preds = %genCnt.exit
  %39 = tail call noalias ptr @calloc(i64 noundef range(i64 0, 4294967296) %8, i64 noundef 4) #17
  %40 = icmp eq ptr %39, null
  %or.cond3.i.i7 = and i1 %9, %40
  br i1 %or.cond3.i.i7, label %41, label %mkTree.exit

41:                                               ; preds = %gv_alloc.exit.i
  %42 = load ptr, ptr @stderr, align 8, !tbaa !8
  %43 = shl nuw nsw i64 %8, 2
  %44 = tail call i32 (ptr, ptr, ...) @fprintf(ptr noundef %42, ptr noundef nonnull @.str.5, i64 noundef %43) #16
  tail call fastcc void @graphviz_exit() #18
  unreachable

mkTree.exit:                                      ; preds = %gv_alloc.exit.i
  %45 = getelementptr inbounds nuw i8, ptr %34, i64 8
  store ptr %39, ptr %45, align 8, !tbaa !67
  %46 = getelementptr inbounds nuw i8, ptr %2, i64 48
  store ptr %34, ptr %46, align 8, !tbaa !69
  %47 = tail call i64 @time(ptr noundef null) #15
  %48 = trunc i64 %47 to i32
  tail call void @srand(i32 noundef %48) #15
  ret ptr %2
}